ccopy_reg
_reconstructor
p0
(cros_proseco_planning.msg._Trajectory
Trajectory
p1
c__builtin__
object
p2
Ntp3
Rp4
(lp5
g0
(cros_proseco_planning.msg._AgentVec
AgentVec
p6
g2
Ntp7
Rp8
(lp9
(lp10
g0
(cros_proseco_planning.msg._Agent
Agent
p11
g2
Ntp12
Rp13
(lp14
g0
(cros_proseco_planning.msg._Action
Action
p15
g2
Ntp16
Rp17
(lp18
F0.0
aF0.0
aF0.0
aF0.0
aF0.0
aF0.0
aF0.0
aF0.0
aF0.0
a(lp19
abag0
(cros_proseco_planning.msg._State
State
p20
g2
Ntp21
Rp22
(lp23
cnumpy.core.multiarray
scalar
p24
(cnumpy
dtype
p25
(S'f8'
p26
I0
I1
tp27
Rp28
(I3
S'<'
p29
NNNI-1
I-1
I0
tp30
bS'E~|\x02\xba\xbfC@'
p31
tp32
Rp33
ag24
(g28
S'\x93ZGpm9\x14@'
p34
tp35
Rp36
ag24
(g28
S'\xa4\xb4\xc6/PS2@'
p37
tp38
Rp39
ag24
(g28
S'\x00\xeca\xc9\x8c\xe6\xd0\xbf'
p40
tp41
Rp42
ag24
(g28
S'\xff\xb9\xcb\x93\xd8~\xeb\xbf'
p43
tp44
Rp45
ag24
(g28
S'_\xd7\xed4\xf5\xb8\xe0\xbf'
p46
tp47
Rp48
abag0
(cros_proseco_planning.msg._Features
Features
p49
g2
Ntp50
Rp51
(lp52
g24
(g28
S'\x00\xcd\xe0\xb9\x8c\x15\xe4?'
p53
tp54
Rp55
ag24
(g25
(S'i8'
p56
I0
I1
tp57
Rp58
(I3
S'<'
p59
NNNI-1
I-1
I0
tp60
bS'\x00\x00\x00\x00\x00\x00\x00\x00'
p61
tp62
Rp63
ag24
(g28
S'\xa0\xad\x14\xf7Q\xd2\xc8?'
p64
tp65
Rp66
ag24
(g28
S'<\xae\xf7\xc9\xa3\xb21@'
p67
tp68
Rp69
ag24
(g58
S'\x01\x00\x00\x00\x00\x00\x00\x00'
p70
tp71
Rp72
aI00
aI00
aI00
aI00
aF0.0
aF0.0
aF0.0
a(lp73
abaI1
abaaba(lp74
g0
(g6
g2
Ntp75
Rp76
(lp77
(lp78
g0
(g11
g2
Ntp79
Rp80
(lp81
g0
(g15
g2
Ntp82
Rp83
(lp84
F0.0
aF0.0
aF0.0
aF0.0
aF0.0
aF0.0
aF0.0
aF0.0
aF0.0
a(lp85
abag0
(g20
g2
Ntp86
Rp87
(lp88
g24
(g28
S'c2\xfe\xec\xcc\xfcJ@'
p89
tp90
Rp91
ag24
(g28
S'\x1bO\r\x8aa\xe2\x13@'
p92
tp93
Rp94
ag24
(g28
S'\xb4\x15\xcb\x9f};2@'
p95
tp96
Rp97
ag24
(g28
S'\xc0\xd7mb(\x15\xc9?'
p98
tp99
Rp100
ag24
(g28
S'\x7f\xce\x8b\x88[\xf3\xf1?'
p101
tp102
Rp103
ag24
(g28
S'?\x92\x8e`\xa8\xcb\xda?'
p104
tp105
Rp106
abag0
(g49
g2
Ntp107
Rp108
(lp109
g24
(g28
S'\x00\xefl\xba:\x1b\xe1?'
p110
tp111
Rp112
ag24
(g58
S'\x00\x00\x00\x00\x00\x00\x00\x00'
p113
tp114
Rp115
ag24
(g28
S'P\x0e+_\xe7\xd9\xd1?'
p116
tp117
Rp118
ag24
(g28
S'<\xae\xf7\xc9\xa3\xb21@'
p119
tp120
Rp121
ag72
aI00
aI00
aI00
aI00
aF0.0
aF0.0
ag24
(g28
S')\xa4\xe8D7\xc2\xe5?'
p122
tp123
Rp124
a(lp125
abaI1
abaabag0
(g6
g2
Ntp126
Rp127
(lp128
(lp129
g0
(g11
g2
Ntp130
Rp131
(lp132
g0
(g15
g2
Ntp133
Rp134
(lp135
F0.0
aF0.0
aF0.0
aF0.0
aF0.0
aF0.0
aF0.0
aF0.0
aF0.0
a(lp136
abag0
(g20
g2
Ntp137
Rp138
(lp139
g24
(g28
S'3p\x1d\xa4\xbb2Q@'
p140
tp141
Rp142
ag24
(g28
S'\xb17zu\xfcl\x14@'
p143
tp144
Rp145
ag24
(g28
S'hZ&\x1a\x8ek2@'
p146
tp147
Rp148
ag24
(g28
S'\x80\xdc\xe7\xc1\x9f\xd6\xc9?'
p149
tp150
Rp151
ag24
(g28
S'\xffB\xbe\x0f-5\x04@'
p152
tp153
Rp154
ag24
(g28
S'\x7f\xaa\x8d\xdf\x07O\xd6?'
p155
tp156
Rp157
abag0
(g49
g2
Ntp158
Rp159
(lp160
g24
(g28
S'\x80\x85\xd5\x05J\x1d\xe7?'
p161
tp162
Rp163
ag24
(g58
S'\x00\x00\x00\x00\x00\x00\x00\x00'
p164
tp165
Rp166
ag24
(g28
S'\xe0\t\xb9Pq`\xc2?'
p167
tp168
Rp169
ag24
(g28
S'<\xae\xf7\xc9\xa3\xb21@'
p170
tp171
Rp172
ag72
aI00
aI00
aI00
aI00
aF0.0
aF0.0
ag24
(g28
S'~\xea\xc4\r$$\xdb?'
p173
tp174
Rp175
a(lp176
abaI1
abaabag0
(g6
g2
Ntp177
Rp178
(lp179
(lp180
g0
(g11
g2
Ntp181
Rp182
(lp183
g0
(g15
g2
Ntp184
Rp185
(lp186
F0.0
aF0.0
aF0.0
aF0.0
aF0.0
aF0.0
aF0.0
aF0.0
aF0.0
a(lp187
abag0
(g20
g2
Ntp188
Rp189
(lp190
g24
(g28
S'\x040WN"\x07U@'
p191
tp192
Rp193
ag24
(g28
S'\x86tq\xe1\x84\x19\x13@'
p194
tp195
Rp196
ag24
(g28
S'`u\x1f\xdf;\x972@'
p197
tp198
Rp199
ag24
(g28
S'\xc8\x89\xd6+\xb9\xdc\xf0\xbf'
p200
tp201
Rp202
ag24
(g28
S'\xff\x92+\x9cP\x8e\x01\xc0'
p203
tp204
Rp205
ag24
(g28
S'\x0f\x02\x02\x9b2\xe1\xf4?'
p206
tp207
Rp208
abag0
(g49
g2
Ntp209
Rp210
(lp211
g24
(g28
S'\x80\xe4\xf8\xa4\x02\x93\xec?'
p212
tp213
Rp214
ag24
(g58
S'\x00\x00\x00\x00\x00\x00\x00\x00'
p215
tp216
Rp217
ag24
(g28
S'\xa0\xb7\xe8\xe8\xb1g\xde?'
p218
tp219
Rp220
ag24
(g28
S'<\xae\xf7\xc9\xa3\xb21@'
p221
tp222
Rp223
ag72
aI00
aI00
aI00
aI00
aF0.0
aF0.0
ag24
(g28
S'B\x14u\xff\x0el\xfc?'
p224
tp225
Rp226
a(lp227
abaI1
abaabag0
(g6
g2
Ntp228
Rp229
(lp230
(lp231
g0
(g11
g2
Ntp232
Rp233
(lp234
g0
(g15
g2
Ntp235
Rp236
(lp237
F0.0
aF0.0
aF0.0
aF0.0
aF0.0
aF0.0
aF0.0
aF0.0
aF0.0
a(lp238
abag0
(g20
g2
Ntp239
Rp240
(lp241
g24
(g28
S'\xea\x8a\xf02\xfb\xc6X@'
p242
tp243
Rp244
ag24
(g28
S'm\xf6\xcd\xea\xd9\xaf\x10@'
p245
tp246
Rp247
ag24
(g28
S'\xa0?\x05\xc5\x06\xe72@'
p248
tp249
Rp250
ag24
(g28
S'\xc0\xf5\xe0\xb2\rt\xeb\xbf'
p251
tp252
Rp253
ag24
(g28
S'\xffK\xfe\xdc\x0c3\xd1\xbf'
p254
tp255
Rp256
ag24
(g28
S'\x7f\xf7o\x06\xd6\x15\xd2\xbf'
p257
tp258
Rp259
abag0
(g49
g2
Ntp260
Rp261
(lp262
g24
(g28
S'@\x16\xd9\xb0/F\xf3?'
p263
tp264
Rp265
ag24
(g58
S'\x00\x00\x00\x00\x00\x00\x00\x00'
p266
tp267
Rp268
ag24
(g28
S'L&\xc8T\x98@\xf1?'
p269
tp270
Rp271
ag24
(g28
S'<\xae\xf7\xc9\xa3\xb21@'
p272
tp273
Rp274
ag72
aI00
aI00
aI00
aI00
aF0.0
aF0.0
ag24
(g28
S'\xbf\xa5\x14\xef34\xe5?'
p275
tp276
Rp277
a(lp278
abaI1
abaabag0
(g6
g2
Ntp279
Rp280
(lp281
(lp282
g0
(g11
g2
Ntp283
Rp284
(lp285
g0
(g15
g2
Ntp286
Rp287
(lp288
F0.0
aF0.0
aF0.0
aF0.0
aF0.0
aF0.0
aF0.0
aF0.0
aF0.0
a(lp289
abag0
(g20
g2
Ntp290
Rp291
(lp292
g24
(g28
S'\x86@\x12\x88X\x8b\\@'
p293
tp294
Rp295
ag24
(g28
S'\x83\xfa\x7f(\x93\x15\x0c@'
p296
tp297
Rp298
ag24
(g28
S'\xd0*L\xfb(\xd72@'
p299
tp300
Rp301
ag24
(g28
S'\x88#Y\xcc\xaf\xb5\xe4\xbf'
p302
tp303
Rp304
ag24
(g28
S'\xffuR\x91qF\xe1?'
p305
tp306
Rp307
ag24
(g28
S'\x8f0O".:\xea?'
p308
tp309
Rp310
abag0
(g49
g2
Ntp311
Rp312
(lp313
g24
(g28
S'@\xc9G\x15SH\xf2?'
p314
tp315
Rp316
ag24
(g58
S'\x00\x00\x00\x00\x00\x00\x00\x00'
p317
tp318
Rp319
ag24
(g28
S'\xfa\n\x00\xaf\xd9\xd4\xfb?'
p320
tp321
Rp322
ag24
(g28
S'<\xae\xf7\xc9\xa3\xb21@'
p323
tp324
Rp325
ag72
aI00
aI00
aI00
aI00
aF0.0
aF0.0
ag24
(g28
S'{\x17e\x1c\xa5\xab\xdc?'
p326
tp327
Rp328
a(lp329
abaI1
abaabag0
(g6
g2
Ntp330
Rp331
(lp332
(lp333
g0
(g11
g2
Ntp334
Rp335
(lp336
g0
(g15
g2
Ntp337
Rp338
(lp339
F0.0
aF0.0
aF0.0
aF0.0
aF0.0
aF0.0
aF0.0
aF0.0
aF0.0
a(lp340
abag0
(g20
g2
Ntp341
Rp342
(lp343
g24
(g28
S'\xb9er\xeaw/`@'
p344
tp345
Rp346
ag24
(g28
S'\x80\xefW\xfb\xad\xd8\x08@'
p347
tp348
Rp349
ag24
(g28
S'\x18K\xb4S\xfe<3@'
p350
tp351
Rp352
ag24
(g28
S'\x08D+\xba!<\xe1\xbf'
p353
tp354
Rp355
ag24
(g28
S'\xff\xaf\xcaw\x1cP\xb9\xbf'
p356
tp357
Rp358
ag24
(g28
S'\x7f\xc0J>\xf3\xd2\xc5?'
p359
tp360
Rp361
abag0
(g49
g2
Ntp362
Rp363
(lp364
g24
(g28
S'\xc0\xcd\xc9\x9b\xa8\xa5\xf8?'
p365
tp366
Rp367
ag24
(g58
S'\x01\x00\x00\x00\x00\x00\x00\x00'
p368
tp369
Rp370
ag24
(g28
S'\x00\xdf\xaf\xf6[\xb1\xf5\xbf'
p371
tp372
Rp373
ag24
(g28
S'<\xae\xf7\xc9\xa3\xb21@'
p374
tp375
Rp376
ag72
aI00
aI00
aI00
aI00
aF0.0
aF0.0
ag24
(g28
S'\xdb\x80\xb5\x891\x17\xd1?'
p377
tp378
Rp379
a(lp380
abaI1
abaabaag0
(cros_proseco_planning.msg._ScenarioInfo
ScenarioInfo
p381
g2
Ntp382
Rp383
(lp384
F3.5
aS'real_world_1'
p385
aS''
p386
aI0
abab.